; Function Attrs: nounwind uwtable
define hidden ptr @SDL_DuplicateSurface_REAL(ptr noundef %0) local_unnamed_addr #2 {
  %.not.i = icmp eq ptr %0, null
  br i1 %.not.i, label %SDL_SurfaceValid.exit.thread, label %SDL_SurfaceValid.exit

SDL_SurfaceValid.exit:                            ; preds = %1
  %2 = getelementptr inbounds nuw i8, ptr %0, i64 40
  %3 = load ptr, ptr %2, align 8
  %4 = icmp eq ptr %3, @SDL_surface_magic
  br i1 %4, label %6, label %SDL_SurfaceValid.exit.thread

SDL_SurfaceValid.exit.thread:                     ; preds = %1, %SDL_SurfaceValid.exit
  %5 = tail call zeroext i1 (ptr, ...) @SDL_SetError_REAL(ptr noundef nonnull @.str, ptr noundef nonnull @.str.5) #10
  br label %16

6:                                                ; preds = %SDL_SurfaceValid.exit
  %7 = getelementptr inbounds nuw i8, ptr %0, i64 4
  %8 = load i32, ptr %7, align 4
  %9 = getelementptr inbounds nuw i8, ptr %0, i64 72
  %10 = load ptr, ptr %9, align 8
  %11 = getelementptr inbounds nuw i8, ptr %0, i64 64
  %12 = load i32, ptr %11, align 8
  %13 = getelementptr inbounds nuw i8, ptr %0, i64 52
  %14 = load i32, ptr %13, align 4
  %15 = tail call ptr @SDL_ConvertSurfaceAndColorspace_REAL(ptr noundef nonnull %0, i32 noundef %8, ptr noundef %10, i32 noundef %12, i32 noundef %14)
  br label %16

16:                                               ; preds = %6, %SDL_SurfaceValid.exit.thread
  %.0 = phi ptr [ %15, %6 ], [ null, %SDL_SurfaceValid.exit.thread ]
  ret ptr %.0
}